target datalayout = "e-m:e-p270:32:32-p271:32:32-p272:64:64-i64:64-i128:128-f80:128-n8:16:32:64-S128"
target triple = "x86_64-pc-linux-gnu"

%"class.std::filesystem::__cxx11::path" = type { %"class.std::__cxx11::basic_string", %"struct.std::filesystem::__cxx11::path::_List" }
%"class.std::__cxx11::basic_string" = type { %"struct.std::__cxx11::basic_string<char>::_Alloc_hider", i64, %union.anon }
%"struct.std::__cxx11::basic_string<char>::_Alloc_hider" = type { ptr }
%union.anon = type { i64, [8 x i8] }
%"struct.std::filesystem::__cxx11::path::_List" = type { %"class.std::unique_ptr" }
%"class.std::unique_ptr" = type { %"struct.std::__uniq_ptr_data" }
%"struct.std::__uniq_ptr_data" = type { %"class.std::__uniq_ptr_impl" }
%"class.std::__uniq_ptr_impl" = type { %"class.std::tuple" }
%"class.std::tuple" = type { %"struct.std::_Tuple_impl" }
%"struct.std::_Tuple_impl" = type { %"struct.std::_Head_base.1" }
%"struct.std::_Head_base.1" = type { ptr }

@.str.2 = private unnamed_addr constant [140 x i8] c"generated/home/dtcxzyw/WorkSpace/Projects/compilers/llvm-opt-benchmark/bench/gromacs/gromacs/src/gromacs/correlationfunctions/integrate.cpp\00", align 1
@.str.3 = private unnamed_addr constant [47 x i8] c"Evaluating integral: n = %d (file %s, line %d)\00", align 1

; Function Attrs: mustprogress nounwind uwtable
define linkonce_odr noundef double @_ZN3gmx6squareIdEET_S1_(double noundef %0) #0 comdat {
  %2 = alloca double, align 8
  store double %0, ptr %2, align 8
  %3 = load double, ptr %2, align 8
  %4 = load double, ptr %2, align 8
  %5 = fmul double %3, %4
  ret double %5
}

; Function Attrs: mustprogress uwtable
define noundef float @_Z17evaluate_integraliPKfS0_S0_fPf(i32 noundef %0, ptr noundef %1, ptr noundef %2, ptr noundef %3, float noundef %4, ptr noundef %5) #3 personality ptr @__gxx_personality_v0 {
  %7 = alloca i32, align 4
  %8 = alloca ptr, align 8
  %9 = alloca ptr, align 8
  %10 = alloca ptr, align 8
  %11 = alloca float, align 4
  %12 = alloca ptr, align 8
  %13 = alloca double, align 8
  %14 = alloca double, align 8
  %15 = alloca double, align 8
  %16 = alloca double, align 8
  %17 = alloca double, align 8
  %18 = alloca i32, align 4
  %19 = alloca i32, align 4
  %20 = alloca %"class.std::filesystem::__cxx11::path", align 8
  %21 = alloca ptr, align 8
  %22 = alloca i32, align 4
  store i32 %0, ptr %7, align 4
  store ptr %1, ptr %8, align 8
  store ptr %2, ptr %9, align 8
  store ptr %3, ptr %10, align 8
  store float %4, ptr %11, align 4
  store ptr %5, ptr %12, align 8
  store double 0.000000e+00, ptr %16, align 8
  store double 0.000000e+00, ptr %17, align 8
  store i32 0, ptr %19, align 4
  %23 = load i32, ptr %7, align 4
  %24 = icmp sle i32 %23, 0
  br i1 %24, label %25, label %32

25:                                               ; preds = %6
  call void @_ZNSt10filesystem7__cxx114pathC2IA140_cS1_EERKT_NS1_6formatE(ptr noundef nonnull align 8 dereferenceable(40) %20, ptr noundef nonnull align 1 dereferenceable(140) @.str.2, i8 noundef zeroext 2)
  %26 = load i32, ptr %7, align 4
  invoke void (i32, ptr, i32, ptr, ...) @_Z9gmx_fataliRKNSt10filesystem7__cxx114pathEiPKcz(i32 noundef 0, ptr noundef nonnull align 8 dereferenceable(40) %20, i32 noundef 98, ptr noundef @.str.3, i32 noundef %26, ptr noundef @.str.2, i32 noundef 98) #9
          to label %27 unwind label %28

27:                                               ; preds = %25
  unreachable

28:                                               ; preds = %25
  %29 = landingpad { ptr, i32 }
          cleanup
  %30 = extractvalue { ptr, i32 } %29, 0
  store ptr %30, ptr %21, align 8
  %31 = extractvalue { ptr, i32 } %29, 1
  store i32 %31, ptr %22, align 4
  call void @_ZNSt10filesystem7__cxx114pathD2Ev(ptr noundef nonnull align 8 dereferenceable(40) %20) #8
  br label %148

32:                                               ; preds = %6
  store double 0.000000e+00, ptr %13, align 8
  store double 0.000000e+00, ptr %14, align 8
  store i32 0, ptr %18, align 4
  br label %33

33:                                               ; preds = %123, %32
  %34 = load i32, ptr %18, align 4
  %35 = load i32, ptr %7, align 4
  %36 = icmp slt i32 %34, %35
  br i1 %36, label %37, label %126

37:                                               ; preds = %33
  store double 0.000000e+00, ptr %15, align 8
  %38 = load i32, ptr %18, align 4
  %39 = icmp sgt i32 %38, 0
  br i1 %39, label %40, label %56

40:                                               ; preds = %37
  %41 = load ptr, ptr %8, align 8
  %42 = load i32, ptr %18, align 4
  %43 = sext i32 %42 to i64
  %44 = getelementptr inbounds float, ptr %41, i64 %43
  %45 = load float, ptr %44, align 4
  %46 = load ptr, ptr %8, align 8
  %47 = load i32, ptr %18, align 4
  %48 = sub nsw i32 %47, 1
  %49 = sext i32 %48 to i64
  %50 = getelementptr inbounds float, ptr %46, i64 %49
  %51 = load float, ptr %50, align 4
  %52 = fsub float %45, %51
  %53 = fpext float %52 to double
  %54 = load double, ptr %15, align 8
  %55 = call double @llvm.fmuladd.f64(double 5.000000e-01, double %53, double %54)
  store double %55, ptr %15, align 8
  br label %56

56:                                               ; preds = %40, %37
  %57 = load i32, ptr %18, align 4
  %58 = load i32, ptr %7, align 4
  %59 = sub nsw i32 %58, 1
  %60 = icmp slt i32 %57, %59
  br i1 %60, label %61, label %77

61:                                               ; preds = %56
  %62 = load ptr, ptr %8, align 8
  %63 = load i32, ptr %18, align 4
  %64 = add nsw i32 %63, 1
  %65 = sext i32 %64 to i64
  %66 = getelementptr inbounds float, ptr %62, i64 %65
  %67 = load float, ptr %66, align 4
  %68 = load ptr, ptr %8, align 8
  %69 = load i32, ptr %18, align 4
  %70 = sext i32 %69 to i64
  %71 = getelementptr inbounds float, ptr %68, i64 %70
  %72 = load float, ptr %71, align 4
  %73 = fsub float %67, %72
  %74 = fpext float %73 to double
  %75 = load double, ptr %15, align 8
  %76 = call double @llvm.fmuladd.f64(double 5.000000e-01, double %74, double %75)
  store double %76, ptr %15, align 8
  br label %77

77:                                               ; preds = %61, %56
  %78 = load double, ptr %15, align 8
  %79 = load ptr, ptr %9, align 8
  %80 = load i32, ptr %18, align 4
  %81 = sext i32 %80 to i64
  %82 = getelementptr inbounds float, ptr %79, i64 %81
  %83 = load float, ptr %82, align 4
  %84 = fpext float %83 to double
  %85 = load double, ptr %13, align 8
  %86 = call double @llvm.fmuladd.f64(double %78, double %84, double %85)
  store double %86, ptr %13, align 8
  %87 = load ptr, ptr %10, align 8
  %88 = icmp ne ptr %87, null
  br i1 %88, label %89, label %101

89:                                               ; preds = %77
  %90 = load double, ptr %15, align 8
  %91 = load ptr, ptr %10, align 8
  %92 = load i32, ptr %18, align 4
  %93 = sext i32 %92 to i64
  %94 = getelementptr inbounds float, ptr %91, i64 %93
  %95 = load float, ptr %94, align 4
  %96 = fpext float %95 to double
  %97 = fmul double %90, %96
  %98 = call noundef double @_ZN3gmx6squareIdEET_S1_(double noundef %97)
  %99 = load double, ptr %14, align 8
  %100 = fadd double %99, %98
  store double %100, ptr %14, align 8
  br label %101

101:                                              ; preds = %89, %77
  %102 = load float, ptr %11, align 4
  %103 = fcmp ogt float %102, 0.000000e+00
  br i1 %103, label %104, label %122

104:                                              ; preds = %101
  %105 = load ptr, ptr %8, align 8
  %106 = load i32, ptr %18, align 4
  %107 = sext i32 %106 to i64
  %108 = getelementptr inbounds float, ptr %105, i64 %107
  %109 = load float, ptr %108, align 4
  %110 = load float, ptr %11, align 4
  %111 = fcmp oge float %109, %110
  br i1 %111, label %112, label %122

112:                                              ; preds = %104
  %113 = load double, ptr %13, align 8
  %114 = load double, ptr %16, align 8
  %115 = fadd double %114, %113
  store double %115, ptr %16, align 8
  %116 = load double, ptr %14, align 8
  %117 = call double @sqrt(double noundef %116) #8
  %118 = load double, ptr %17, align 8
  %119 = fadd double %118, %117
  store double %119, ptr %17, align 8
  %120 = load i32, ptr %19, align 4
  %121 = add nsw i32 %120, 1
  store i32 %121, ptr %19, align 4
  br label %122

122:                                              ; preds = %112, %104, %101
  br label %123

123:                                              ; preds = %122
  %124 = load i32, ptr %18, align 4
  %125 = add nsw i32 %124, 1
  store i32 %125, ptr %18, align 4
  br label %33, !llvm.loop !8

126:                                              ; preds = %33
  %127 = load i32, ptr %19, align 4
  %128 = icmp sgt i32 %127, 0
  br i1 %128, label %129, label %140

129:                                              ; preds = %126
  %130 = load double, ptr %16, align 8
  %131 = load i32, ptr %19, align 4
  %132 = sitofp i32 %131 to double
  %133 = fdiv double %130, %132
  store double %133, ptr %13, align 8
  %134 = load double, ptr %17, align 8
  %135 = load i32, ptr %19, align 4
  %136 = sitofp i32 %135 to double
  %137 = fdiv double %134, %136
  %138 = fptrunc double %137 to float
  %139 = load ptr, ptr %12, align 8
  store float %138, ptr %139, align 4
  br label %145

140:                                              ; preds = %126
  %141 = load double, ptr %14, align 8
  %142 = call double @sqrt(double noundef %141) #8
  %143 = fptrunc double %142 to float
  %144 = load ptr, ptr %12, align 8
  store float %143, ptr %144, align 4
  br label %145

145:                                              ; preds = %140, %129
  %146 = load double, ptr %13, align 8
  %147 = fptrunc double %146 to float
  ret float %147

148:                                              ; preds = %28
  %149 = load ptr, ptr %21, align 8
  %150 = load i32, ptr %22, align 4
  %151 = insertvalue { ptr, i32 } poison, ptr %149, 0
  %152 = insertvalue { ptr, i32 } %151, i32 %150, 1
  resume { ptr, i32 } %152
}